target datalayout = "e-m:e-p270:32:32-p271:32:32-p272:64:64-i64:64-i128:128-f80:128-n8:16:32:64-S128"
target triple = "x86_64-pc-linux-gnu"

%struct.PaUtilHostApiRepresentation = type { %struct.PaUtilPrivatePaFrontHostApiInfo, %struct.PaHostApiInfo, ptr, ptr, ptr, ptr }
%struct.PaUtilPrivatePaFrontHostApiInfo = type { i64 }
%struct.PaHostApiInfo = type { i32, i32, ptr, i32, i32, i32 }
%struct.PaStreamParameters = type { i32, i32, i64, double, ptr }
%struct.PaAlsaDeviceInfo = type { %struct.PaDeviceInfo, ptr, i32, i32, i32 }
%struct.PaDeviceInfo = type { i32, ptr, i32, i32, i32, double, double, double, double, double }
%struct.PaAlsaStreamInfo = type { i64, i32, i64, ptr }

@busyRetries_ = internal global i32 100, align 4
@alsa_snd_pcm_open = internal global ptr null, align 8
@alsa_snd_pcm_nonblock = internal global ptr null, align 8
@alsa_snd_strerror = internal global ptr null, align 8
@.str.36 = private unnamed_addr constant [1 x i8] zeroinitializer, align 1
@paUnixMainThread = external global i64, align 8
@.str.98 = private unnamed_addr constant [172 x i8] c"Expression 'ret' failed in 'generated/home/dtcxzyw/WorkSpace/Projects/compilers/llvm-opt-benchmark/bench/portaudio/portaudio/src/hostapi/alsa/pa_linux_alsa.c', line: 1760\0A\00", align 1
@.str.99 = private unnamed_addr constant [201 x i8] c"Expression 'alsa_snd_pcm_nonblock( *pcm, 0 )' failed in 'generated/home/dtcxzyw/WorkSpace/Projects/compilers/llvm-opt-benchmark/bench/portaudio/portaudio/src/hostapi/alsa/pa_linux_alsa.c', line: 1762\0A\00", align 1

; Function Attrs: inlinehint nounwind willreturn memory(none) uwtable
define available_externally i32 @pthread_equal(i64 noundef %0, i64 noundef %1) #8 {
  %3 = alloca i64, align 8
  %4 = alloca i64, align 8
  store i64 %0, ptr %3, align 8, !tbaa !37
  store i64 %1, ptr %4, align 8, !tbaa !37
  %5 = load i64, ptr %3, align 8, !tbaa !37
  %6 = load i64, ptr %4, align 8, !tbaa !37
  %7 = icmp eq i64 %5, %6
  %8 = zext i1 %7 to i32
  ret i32 %8
}

; Function Attrs: nounwind uwtable
define internal i32 @OpenPcm(ptr noundef %0, ptr noundef %1, i32 noundef %2, i32 noundef %3, i32 noundef %4) #0 {
  %6 = alloca ptr, align 8
  %7 = alloca ptr, align 8
  %8 = alloca i32, align 4
  %9 = alloca i32, align 4
  %10 = alloca i32, align 4
  %11 = alloca i32, align 4
  %12 = alloca i32, align 4
  %13 = alloca i32, align 4
  store ptr %0, ptr %6, align 8, !tbaa !152
  store ptr %1, ptr %7, align 8, !tbaa !3
  store i32 %2, ptr %8, align 4, !tbaa !8
  store i32 %3, ptr %9, align 4, !tbaa !8
  store i32 %4, ptr %10, align 4, !tbaa !8
  call void @llvm.lifetime.start.p0(i64 4, ptr %11) #17
  call void @llvm.lifetime.start.p0(i64 4, ptr %12) #17
  store i32 0, ptr %12, align 4, !tbaa !8
  call void @llvm.lifetime.start.p0(i64 4, ptr %13) #17
  %14 = load i32, ptr %10, align 4, !tbaa !8
  %15 = icmp ne i32 %14, 0
  br i1 %15, label %16, label %18

16:                                               ; preds = %5
  %17 = load i32, ptr @busyRetries_, align 4, !tbaa !8
  br label %19

18:                                               ; preds = %5
  br label %19

19:                                               ; preds = %18, %16
  %20 = phi i32 [ %17, %16 ], [ 0, %18 ]
  store i32 %20, ptr %13, align 4, !tbaa !8
  %21 = load ptr, ptr @alsa_snd_pcm_open, align 8, !tbaa !32
  %22 = load ptr, ptr %6, align 8, !tbaa !152
  %23 = load ptr, ptr %7, align 8, !tbaa !3
  %24 = load i32, ptr %8, align 4, !tbaa !8
  %25 = load i32, ptr %9, align 4, !tbaa !8
  %26 = call i32 %21(ptr noundef %22, ptr noundef %23, i32 noundef %24, i32 noundef %25)
  store i32 %26, ptr %11, align 4, !tbaa !8
  store i32 0, ptr %12, align 4, !tbaa !8
  br label %27

27:                                               ; preds = %47, %19
  %28 = load i32, ptr %12, align 4, !tbaa !8
  %29 = load i32, ptr %13, align 4, !tbaa !8
  %30 = icmp slt i32 %28, %29
  br i1 %30, label %31, label %34

31:                                               ; preds = %27
  %32 = load i32, ptr %11, align 4, !tbaa !8
  %33 = icmp eq i32 -16, %32
  br label %34

34:                                               ; preds = %31, %27
  %35 = phi i1 [ false, %27 ], [ %33, %31 ]
  br i1 %35, label %36, label %50

36:                                               ; preds = %34
  call void @Pa_Sleep(i64 noundef 10)
  %37 = load ptr, ptr @alsa_snd_pcm_open, align 8, !tbaa !32
  %38 = load ptr, ptr %6, align 8, !tbaa !152
  %39 = load ptr, ptr %7, align 8, !tbaa !3
  %40 = load i32, ptr %8, align 4, !tbaa !8
  %41 = load i32, ptr %9, align 4, !tbaa !8
  %42 = call i32 %37(ptr noundef %38, ptr noundef %39, i32 noundef %40, i32 noundef %41)
  store i32 %42, ptr %11, align 4, !tbaa !8
  %43 = load i32, ptr %11, align 4, !tbaa !8
  %44 = icmp ne i32 -16, %43
  br i1 %44, label %45, label %46

45:                                               ; preds = %36
  br label %46

46:                                               ; preds = %45, %36
  br label %47

47:                                               ; preds = %46
  %48 = load i32, ptr %12, align 4, !tbaa !8
  %49 = add nsw i32 %48, 1
  store i32 %49, ptr %12, align 4, !tbaa !8
  br label %27, !llvm.loop !154

50:                                               ; preds = %34
  %51 = load i32, ptr %11, align 4, !tbaa !8
  %52 = icmp eq i32 -16, %51
  br i1 %52, label %53, label %54

53:                                               ; preds = %50
  br label %59

54:                                               ; preds = %50
  %55 = load i32, ptr %11, align 4, !tbaa !8
  %56 = icmp slt i32 %55, 0
  br i1 %56, label %57, label %58

57:                                               ; preds = %54
  br label %58

58:                                               ; preds = %57, %54
  br label %59

59:                                               ; preds = %58, %53
  %60 = load i32, ptr %11, align 4, !tbaa !8
  call void @llvm.lifetime.end.p0(i64 4, ptr %13) #17
  call void @llvm.lifetime.end.p0(i64 4, ptr %12) #17
  call void @llvm.lifetime.end.p0(i64 4, ptr %11) #17
  ret i32 %60
}

; Function Attrs: nounwind uwtable
define internal ptr @GetDeviceInfo(ptr noundef %0, i32 noundef %1) #0 {
  %3 = alloca ptr, align 8
  %4 = alloca i32, align 4
  store ptr %0, ptr %3, align 8, !tbaa !24
  store i32 %1, ptr %4, align 4, !tbaa !8
  %5 = load ptr, ptr %3, align 8, !tbaa !24
  %6 = getelementptr inbounds nuw %struct.PaUtilHostApiRepresentation, ptr %5, i32 0, i32 2
  %7 = load ptr, ptr %6, align 8, !tbaa !88
  %8 = load i32, ptr %4, align 4, !tbaa !8
  %9 = sext i32 %8 to i64
  %10 = getelementptr inbounds ptr, ptr %7, i64 %9
  %11 = load ptr, ptr %10, align 8, !tbaa !136
  ret ptr %11
}

; Function Attrs: nounwind uwtable
define internal i32 @AlsaOpen(ptr noundef %0, ptr noundef %1, i32 noundef %2, ptr noundef %3) #0 {
  %5 = alloca i32, align 4
  %6 = alloca ptr, align 8
  %7 = alloca ptr, align 8
  %8 = alloca i32, align 4
  %9 = alloca ptr, align 8
  %10 = alloca i32, align 4
  %11 = alloca i32, align 4
  %12 = alloca ptr, align 8
  %13 = alloca ptr, align 8
  %14 = alloca ptr, align 8
  %15 = alloca i32, align 4
  %16 = alloca i32, align 4
  %17 = alloca i32, align 4
  store ptr %0, ptr %6, align 8, !tbaa !24
  store ptr %1, ptr %7, align 8, !tbaa !33
  store i32 %2, ptr %8, align 4, !tbaa !8
  store ptr %3, ptr %9, align 8, !tbaa !152
  call void @llvm.lifetime.start.p0(i64 4, ptr %10) #17
  store i32 0, ptr %10, align 4, !tbaa !8
  call void @llvm.lifetime.start.p0(i64 4, ptr %11) #17
  call void @llvm.lifetime.start.p0(i64 8, ptr %12) #17
  store ptr @.str.36, ptr %12, align 8, !tbaa !3
  call void @llvm.lifetime.start.p0(i64 8, ptr %13) #17
  store ptr null, ptr %13, align 8, !tbaa !89
  call void @llvm.lifetime.start.p0(i64 8, ptr %14) #17
  %18 = load ptr, ptr %7, align 8, !tbaa !33
  %19 = getelementptr inbounds nuw %struct.PaStreamParameters, ptr %18, i32 0, i32 4
  %20 = load ptr, ptr %19, align 8, !tbaa !160
  store ptr %20, ptr %14, align 8, !tbaa !115
  %21 = load ptr, ptr %14, align 8, !tbaa !115
  %22 = icmp ne ptr %21, null
  br i1 %22, label %32, label %23

23:                                               ; preds = %4
  %24 = load ptr, ptr %6, align 8, !tbaa !24
  %25 = load ptr, ptr %7, align 8, !tbaa !33
  %26 = getelementptr inbounds nuw %struct.PaStreamParameters, ptr %25, i32 0, i32 0
  %27 = load i32, ptr %26, align 8, !tbaa !159
  %28 = call ptr @GetDeviceInfo(ptr noundef %24, i32 noundef %27)
  store ptr %28, ptr %13, align 8, !tbaa !89
  %29 = load ptr, ptr %13, align 8, !tbaa !89
  %30 = getelementptr inbounds nuw %struct.PaAlsaDeviceInfo, ptr %29, i32 0, i32 1
  %31 = load ptr, ptr %30, align 8, !tbaa !142
  store ptr %31, ptr %12, align 8, !tbaa !3
  br label %36

32:                                               ; preds = %4
  %33 = load ptr, ptr %14, align 8, !tbaa !115
  %34 = getelementptr inbounds nuw %struct.PaAlsaStreamInfo, ptr %33, i32 0, i32 3
  %35 = load ptr, ptr %34, align 8, !tbaa !121
  store ptr %35, ptr %12, align 8, !tbaa !3
  br label %36

36:                                               ; preds = %32, %23
  %37 = load ptr, ptr %9, align 8, !tbaa !152
  %38 = load ptr, ptr %12, align 8, !tbaa !3
  %39 = load i32, ptr %8, align 4, !tbaa !8
  %40 = icmp eq i32 %39, 0
  %41 = select i1 %40, i32 1, i32 0
  %42 = call i32 @OpenPcm(ptr noundef %37, ptr noundef %38, i32 noundef %41, i32 noundef 1, i32 noundef 1)
  store i32 %42, ptr %11, align 4, !tbaa !8
  %43 = icmp slt i32 %42, 0
  br i1 %43, label %44, label %85

44:                                               ; preds = %36
  %45 = load ptr, ptr %9, align 8, !tbaa !152
  store ptr null, ptr %45, align 8, !tbaa !102
  br label %46

46:                                               ; preds = %44
  call void @llvm.lifetime.start.p0(i64 4, ptr %15) #17
  %47 = load i32, ptr %11, align 4, !tbaa !8
  store i32 %47, ptr %15, align 4, !tbaa !8
  %48 = icmp slt i32 %47, 0
  %49 = zext i1 %48 to i32
  %50 = sext i32 %49 to i64
  %51 = call i64 @llvm.expect.i64(i64 %50, i64 0)
  %52 = icmp ne i64 %51, 0
  br i1 %52, label %53, label %79

53:                                               ; preds = %46
  %54 = load i32, ptr %11, align 4, !tbaa !8
  %55 = icmp eq i32 -16, %54
  %56 = select i1 %55, i32 -9985, i32 -9993
  %57 = icmp eq i32 %56, -9999
  br i1 %57, label %58, label %69

58:                                               ; preds = %53
  %59 = call i64 @pthread_self() #20
  %60 = load i64, ptr @paUnixMainThread, align 8, !tbaa !37
  %61 = call i32 @pthread_equal(i64 noundef %59, i64 noundef %60) #20
  %62 = icmp ne i32 %61, 0
  br i1 %62, label %63, label %69

63:                                               ; preds = %58
  %64 = load i32, ptr %15, align 4, !tbaa !8
  %65 = sext i32 %64 to i64
  %66 = load ptr, ptr @alsa_snd_strerror, align 8, !tbaa !32
  %67 = load i32, ptr %15, align 4, !tbaa !8
  %68 = call ptr %66(i32 noundef %67)
  call void @PaUtil_SetLastHostErrorInfo(i32 noundef 8, i64 noundef %65, ptr noundef %68)
  br label %69

69:                                               ; preds = %63, %58, %53
  call void (ptr, ...) @PaUtil_DebugPrint(ptr noundef @.str.98)
  %70 = load i32, ptr %11, align 4, !tbaa !8
  %71 = icmp eq i32 -16, %70
  %72 = select i1 %71, i32 -9985, i32 -9993
  %73 = icmp eq i32 %72, -9999
  br i1 %73, label %74, label %75

74:                                               ; preds = %69
  br label %75

75:                                               ; preds = %74, %69
  %76 = load i32, ptr %11, align 4, !tbaa !8
  %77 = icmp eq i32 -16, %76
  %78 = select i1 %77, i32 -9985, i32 -9993
  store i32 %78, ptr %10, align 4, !tbaa !8
  store i32 4, ptr %16, align 4
  br label %80

79:                                               ; preds = %46
  store i32 0, ptr %16, align 4
  br label %80

80:                                               ; preds = %75, %79
  call void @llvm.lifetime.end.p0(i64 4, ptr %15) #17
  %81 = load i32, ptr %16, align 4
  switch i32 %81, label %117 [
    i32 0, label %82
    i32 4, label %116
  ]

82:                                               ; preds = %80
  br label %83

83:                                               ; preds = %82
  br label %84

84:                                               ; preds = %83
  br label %85

85:                                               ; preds = %84, %36
  br label %86

86:                                               ; preds = %85
  call void @llvm.lifetime.start.p0(i64 4, ptr %17) #17
  %87 = load ptr, ptr @alsa_snd_pcm_nonblock, align 8, !tbaa !32
  %88 = load ptr, ptr %9, align 8, !tbaa !152
  %89 = load ptr, ptr %88, align 8, !tbaa !102
  %90 = call i32 %87(ptr noundef %89, i32 noundef 0)
  store i32 %90, ptr %17, align 4, !tbaa !8
  %91 = icmp slt i32 %90, 0
  %92 = zext i1 %91 to i32
  %93 = sext i32 %92 to i64
  %94 = call i64 @llvm.expect.i64(i64 %93, i64 0)
  %95 = icmp ne i64 %94, 0
  br i1 %95, label %96, label %108

96:                                               ; preds = %86
  %97 = call i64 @pthread_self() #20
  %98 = load i64, ptr @paUnixMainThread, align 8, !tbaa !37
  %99 = call i32 @pthread_equal(i64 noundef %97, i64 noundef %98) #20
  %100 = icmp ne i32 %99, 0
  br i1 %100, label %101, label %107

101:                                              ; preds = %96
  %102 = load i32, ptr %17, align 4, !tbaa !8
  %103 = sext i32 %102 to i64
  %104 = load ptr, ptr @alsa_snd_strerror, align 8, !tbaa !32
  %105 = load i32, ptr %17, align 4, !tbaa !8
  %106 = call ptr %104(i32 noundef %105)
  call void @PaUtil_SetLastHostErrorInfo(i32 noundef 8, i64 noundef %103, ptr noundef %106)
  br label %107

107:                                              ; preds = %101, %96
  call void (ptr, ...) @PaUtil_DebugPrint(ptr noundef @.str.99)
  store i32 -9999, ptr %10, align 4, !tbaa !8
  store i32 4, ptr %16, align 4
  br label %109

108:                                              ; preds = %86
  store i32 0, ptr %16, align 4
  br label %109

109:                                              ; preds = %107, %108
  call void @llvm.lifetime.end.p0(i64 4, ptr %17) #17
  %110 = load i32, ptr %16, align 4
  switch i32 %110, label %117 [
    i32 0, label %111
    i32 4, label %116
  ]

111:                                              ; preds = %109
  br label %112

112:                                              ; preds = %111
  br label %113

113:                                              ; preds = %112
  br label %114

114:                                              ; preds = %116, %113
  %115 = load i32, ptr %10, align 4, !tbaa !8
  store i32 %115, ptr %5, align 4
  store i32 1, ptr %16, align 4
  br label %117

116:                                              ; preds = %109, %80
  br label %114

117:                                              ; preds = %114, %109, %80
  call void @llvm.lifetime.end.p0(i64 8, ptr %14) #17
  call void @llvm.lifetime.end.p0(i64 8, ptr %13) #17
  call void @llvm.lifetime.end.p0(i64 8, ptr %12) #17
  call void @llvm.lifetime.end.p0(i64 4, ptr %11) #17
  call void @llvm.lifetime.end.p0(i64 4, ptr %10) #17
  %118 = load i32, ptr %5, align 4
  ret i32 %118
}