; Function Attrs: nounwind uwtable
define internal fastcc range(i32 -9999, 1) i32 @AlsaOpen(ptr noundef readonly captures(none) %0, ptr noundef readonly captures(none) %1, i32 noundef range(i32 0, 2) %2, ptr noundef nonnull %3) unnamed_addr #2 {
  %5 = getelementptr inbounds nuw i8, ptr %1, i64 24
  %6 = load ptr, ptr %5, align 8, !tbaa !34
  %.not = icmp eq ptr %6, null
  br i1 %.not, label %7, label %14

7:                                                ; preds = %4
  %8 = load i32, ptr %1, align 8, !tbaa !31
  %9 = getelementptr i8, ptr %0, i64 40
  %.val = load ptr, ptr %9, align 8, !tbaa !36
  %10 = sext i32 %8 to i64
  %11 = getelementptr inbounds ptr, ptr %.val, i64 %10
  %12 = load ptr, ptr %11, align 8, !tbaa !37
  %13 = getelementptr inbounds nuw i8, ptr %12, i64 72
  br label %16

14:                                               ; preds = %4
  %15 = getelementptr inbounds nuw i8, ptr %6, i64 24
  br label %16

16:                                               ; preds = %14, %7
  %.025.in = phi ptr [ %15, %14 ], [ %13, %7 ]
  %.025 = load ptr, ptr %.025.in, align 8, !tbaa !114
  %17 = xor i32 %2, 1
  %18 = load i32, ptr @busyRetries_, align 4
  %19 = tail call i32 @snd_pcm_open(ptr noundef nonnull %3, ptr noundef %.025, i32 noundef range(i32 0, 2) %17, i32 noundef 1) #25, !callees !165
  %20 = icmp sgt i32 %18, 0
  %21 = icmp eq i32 %19, -16
  %22 = select i1 %20, i1 %21, i1 false
  br i1 %22, label %.lr.ph.split.i, label %OpenPcm.exit

.lr.ph.split.i:                                   ; preds = %16, %.lr.ph.split.i
  %.01617.i = phi i32 [ %24, %.lr.ph.split.i ], [ 0, %16 ]
  tail call void @Pa_Sleep(i64 noundef 10) #25
  %23 = tail call i32 @snd_pcm_open(ptr noundef nonnull %3, ptr noundef %.025, i32 noundef range(i32 0, 2) %17, i32 noundef 1) #25, !callees !165
  %24 = add nuw nsw i32 %.01617.i, 1
  %25 = icmp sgt i32 %18, %24
  %26 = icmp eq i32 %23, -16
  %27 = select i1 %25, i1 %26, i1 false
  br i1 %27, label %.lr.ph.split.i, label %OpenPcm.exit, !llvm.loop !185

OpenPcm.exit:                                     ; preds = %.lr.ph.split.i, %16
  %.0.lcssa.i = phi i32 [ %19, %16 ], [ %23, %.lr.ph.split.i ]
  %28 = icmp slt i32 %.0.lcssa.i, 0
  br i1 %28, label %29, label %32

29:                                               ; preds = %OpenPcm.exit
  store ptr null, ptr %3, align 8, !tbaa !153
  %30 = icmp eq i32 %.0.lcssa.i, -16
  %31 = select i1 %30, i32 -9985, i32 -9993
  br label %.sink.split

32:                                               ; preds = %OpenPcm.exit
  %33 = load ptr, ptr %3, align 8, !tbaa !153
  %34 = tail call i32 @snd_pcm_nonblock(ptr noundef %33, i32 noundef 0) #25, !callees !169
  %35 = icmp slt i32 %34, 0
  br i1 %35, label %36, label %42, !prof !9

36:                                               ; preds = %32
  %37 = tail call i64 @pthread_self() #28
  %38 = load i64, ptr @paUnixMainThread, align 8, !tbaa !108
  %.not30 = icmp eq i64 %37, %38
  br i1 %.not30, label %39, label %.sink.split

39:                                               ; preds = %36
  %40 = sext i32 %34 to i64
  %41 = tail call ptr @snd_strerror(i32 noundef %34) #25, !callees !109
  tail call void @PaUtil_SetLastHostErrorInfo(i32 noundef 8, i64 noundef %40, ptr noundef %41) #25
  br label %.sink.split

.sink.split:                                      ; preds = %36, %39, %29
  %.str.98.sink = phi ptr [ @.str.98, %29 ], [ @.str.99, %39 ], [ @.str.99, %36 ]
  %.3.ph = phi i32 [ %31, %29 ], [ -9999, %39 ], [ -9999, %36 ]
  tail call void (ptr, ...) @PaUtil_DebugPrint(ptr noundef nonnull %.str.98.sink) #25
  br label %42

42:                                               ; preds = %.sink.split, %32
  %.3 = phi i32 [ 0, %32 ], [ %.3.ph, %.sink.split ]
  ret i32 %.3
}